target datalayout = "e-m:e-p270:32:32-p271:32:32-p272:64:64-i64:64-i128:128-f80:128-n8:16:32:64-S128"
target triple = "x86_64-pc-linux-gnu"

; Function Attrs: mustprogress uwtable
define void @_ZN7rocksdb16ThreadStatusUtil17EraseDatabaseInfoEPKNS_2DBE(ptr noundef %0) #3 align 2 {
  %2 = alloca ptr, align 8
  %3 = alloca ptr, align 8
  %4 = alloca i32, align 4
  store ptr %0, ptr %2, align 8, !tbaa !60
  call void @llvm.lifetime.start.p0(i64 8, ptr %3) #5
  %5 = load ptr, ptr %2, align 8, !tbaa !60
  %6 = load ptr, ptr %5, align 8, !tbaa !45
  %7 = getelementptr inbounds ptr, ptr %6, i64 97
  %8 = load ptr, ptr %7, align 8
  %9 = call noundef ptr %8(ptr noundef nonnull align 8 dereferenceable(8) %5)
  %10 = load ptr, ptr %9, align 8, !tbaa !45
  %11 = getelementptr inbounds ptr, ptr %10, i64 80
  %12 = load ptr, ptr %11, align 8
  %13 = call noundef ptr %12(ptr noundef nonnull align 8 dereferenceable(72) %9)
  store ptr %13, ptr %3, align 8, !tbaa !43
  %14 = load ptr, ptr %3, align 8, !tbaa !43
  %15 = icmp eq ptr %14, null
  br i1 %15, label %16, label %17

16:                                               ; preds = %1
  store i32 1, ptr %4, align 4
  br label %20

17:                                               ; preds = %1
  %18 = load ptr, ptr %3, align 8, !tbaa !43
  %19 = load ptr, ptr %2, align 8, !tbaa !60
  call void @_ZN7rocksdb19ThreadStatusUpdater17EraseDatabaseInfoEPKv(ptr noundef nonnull align 8 dereferenceable(216) %18, ptr noundef %19)
  store i32 0, ptr %4, align 4
  br label %20

20:                                               ; preds = %17, %16
  call void @llvm.lifetime.end.p0(i64 8, ptr %3) #5
  %21 = load i32, ptr %4, align 4
  switch i32 %21, label %23 [
    i32 0, label %22
    i32 1, label %22
  ]

22:                                               ; preds = %20, %20
  ret void

23:                                               ; preds = %20
  unreachable
}