; Function Attrs: mustprogress uwtable
define void @_ZN7rocksdb16ThreadStatusUtil17EraseDatabaseInfoEPKNS_2DBE(ptr noundef %0) local_unnamed_addr #3 align 2 {
  %2 = load ptr, ptr %0, align 8, !tbaa !20
  %3 = getelementptr inbounds nuw i8, ptr %2, i64 776
  %4 = load ptr, ptr %3, align 8
  %5 = tail call noundef ptr %4(ptr noundef nonnull align 8 dereferenceable(8) %0)
  %6 = load ptr, ptr %5, align 8, !tbaa !20
  %7 = getelementptr inbounds nuw i8, ptr %6, i64 640
  %8 = load ptr, ptr %7, align 8
  %9 = tail call noundef ptr %8(ptr noundef nonnull align 8 dereferenceable(72) %5)
  %10 = icmp eq ptr %9, null
  br i1 %10, label %12, label %11

11:                                               ; preds = %1
  tail call void @_ZN7rocksdb19ThreadStatusUpdater17EraseDatabaseInfoEPKv(ptr noundef nonnull align 8 dereferenceable(216) %9, ptr noundef nonnull %0)
  br label %12

12:                                               ; preds = %1, %11
  ret void
}